; Function Attrs: mustprogress uwtable
define hidden void @_ZN5zxing6String6appendENS_3RefIS0_EE(ptr noundef nonnull align 8 dereferenceable(48) %0, ptr noundef readonly captures(none) %1) local_unnamed_addr #0 align 2 {
  %3 = load ptr, ptr %1, align 8, !tbaa !23
  %4 = getelementptr inbounds nuw i8, ptr %3, i64 24
  %5 = load i64, ptr %4, align 8, !tbaa !17
  %6 = getelementptr inbounds nuw i8, ptr %0, i64 24
  %7 = load i64, ptr %6, align 8, !tbaa !17
  %8 = sub i64 4611686018427387903, %7
  %9 = icmp ult i64 %8, %5
  br i1 %9, label %10, label %_ZN5zxing6String6appendERKNSt7__cxx1112basic_stringIcSt11char_traitsIcESaIcEEE.exit

10:                                               ; preds = %2
  tail call void @_ZSt20__throw_length_errorPKc(ptr noundef nonnull @.str) #21
  unreachable

_ZN5zxing6String6appendERKNSt7__cxx1112basic_stringIcSt11char_traitsIcESaIcEEE.exit: ; preds = %2
  %11 = getelementptr inbounds nuw i8, ptr %3, i64 16
  %12 = getelementptr inbounds nuw i8, ptr %0, i64 16
  %13 = load ptr, ptr %11, align 8, !tbaa !14
  %14 = tail call noundef nonnull align 8 dereferenceable(32) ptr @_ZNSt7__cxx1112basic_stringIcSt11char_traitsIcESaIcEE9_M_appendEPKcm(ptr noundef nonnull align 8 dereferenceable(32) %12, ptr noundef %13, i64 noundef %5)
  ret void
}